; ModuleID = '13/655.c'
source_filename = "13/655.c"
target datalayout = "e-m:e-p270:32:32-p271:32:32-p272:64:64-i64:64-f80:128-n8:16:32:64-S128"
target triple = "x86_64-pc-linux-gnu"

@.str = private unnamed_addr constant [5 x i8] c"%d%d\00", align 1
@.str.1 = private unnamed_addr constant [3 x i8] c"%d\00", align 1
@.str.2 = private unnamed_addr constant [4 x i8] c" %d\00", align 1

; Function Attrs: noinline nounwind uwtable
define dso_local void @main() #0 {
  %1 = alloca i32, align 4
  %2 = alloca i32, align 4
  %3 = alloca i32, align 4
  %4 = alloca i32, align 4
  %5 = alloca [20000 x i32], align 16
  %6 = getelementptr inbounds [20000 x i32], [20000 x i32]* %5, i64 0, i64 0
  %7 = call i32 (i8*, ...) @__isoc99_scanf(i8* getelementptr inbounds ([5 x i8], [5 x i8]* @.str, i64 0, i64 0), i32* %1, i32* %6)
  %8 = getelementptr inbounds [20000 x i32], [20000 x i32]* %5, i64 0, i64 0
  %9 = load i32, i32* %8, align 16
  %10 = call i32 (i8*, ...) @printf(i8* getelementptr inbounds ([3 x i8], [3 x i8]* @.str.1, i64 0, i64 0), i32 %9)
  store i32 1, i32* %2, align 4
  br label %11

11:                                               ; preds = %45, %0
  %12 = load i32, i32* %2, align 4
  %13 = load i32, i32* %1, align 4
  %14 = sub nsw i32 %13, 1
  %15 = icmp sle i32 %12, %14
  br i1 %15, label %16, label %48

16:                                               ; preds = %11
  %17 = load i32, i32* %2, align 4
  %18 = sext i32 %17 to i64
  %19 = getelementptr inbounds [20000 x i32], [20000 x i32]* %5, i64 0, i64 %18
  %20 = call i32 (i8*, ...) @__isoc99_scanf(i8* getelementptr inbounds ([3 x i8], [3 x i8]* @.str.1, i64 0, i64 0), i32* %19)
  store i32 0, i32* %3, align 4
  br label %21

21:                                               ; preds = %41, %16
  %22 = load i32, i32* %3, align 4
  %23 = load i32, i32* %2, align 4
  %24 = sub nsw i32 %23, 1
  %25 = icmp sle i32 %22, %24
  br i1 %25, label %26, label %44

26:                                               ; preds = %21
  %27 = load i32, i32* %2, align 4
  %28 = sext i32 %27 to i64
  %29 = getelementptr inbounds [20000 x i32], [20000 x i32]* %5, i64 0, i64 %28
  %30 = load i32, i32* %29, align 4
  %31 = load i32, i32* %3, align 4
  %32 = sext i32 %31 to i64
  %33 = getelementptr inbounds [20000 x i32], [20000 x i32]* %5, i64 0, i64 %32
  %34 = load i32, i32* %33, align 4
  %35 = icmp eq i32 %30, %34
  br i1 %35, label %36, label %40

36:                                               ; preds = %26
  %37 = load i32, i32* %2, align 4
  %38 = sext i32 %37 to i64
  %39 = getelementptr inbounds [20000 x i32], [20000 x i32]* %5, i64 0, i64 %38
  store i32 0, i32* %39, align 4
  br label %40

40:                                               ; preds = %36, %26
  br label %41

41:                                               ; preds = %40
  %42 = load i32, i32* %3, align 4
  %43 = add nsw i32 %42, 1
  store i32 %43, i32* %3, align 4
  br label %21

44:                                               ; preds = %21
  br label %45

45:                                               ; preds = %44
  %46 = load i32, i32* %2, align 4
  %47 = add nsw i32 %46, 1
  store i32 %47, i32* %2, align 4
  br label %11

48:                                               ; preds = %11
  store i32 1, i32* %4, align 4
  br label %49

49:                                               ; preds = %66, %48
  %50 = load i32, i32* %4, align 4
  %51 = load i32, i32* %1, align 4
  %52 = icmp slt i32 %50, %51
  br i1 %52, label %53, label %69

53:                                               ; preds = %49
  %54 = load i32, i32* %4, align 4
  %55 = sext i32 %54 to i64
  %56 = getelementptr inbounds [20000 x i32], [20000 x i32]* %5, i64 0, i64 %55
  %57 = load i32, i32* %56, align 4
  %58 = icmp ne i32 %57, 0
  br i1 %58, label %59, label %65

59:                                               ; preds = %53
  %60 = load i32, i32* %4, align 4
  %61 = sext i32 %60 to i64
  %62 = getelementptr inbounds [20000 x i32], [20000 x i32]* %5, i64 0, i64 %61
  %63 = load i32, i32* %62, align 4
  %64 = call i32 (i8*, ...) @printf(i8* getelementptr inbounds ([4 x i8], [4 x i8]* @.str.2, i64 0, i64 0), i32 %63)
  br label %65

65:                                               ; preds = %59, %53
  br label %66

66:                                               ; preds = %65
  %67 = load i32, i32* %4, align 4
  %68 = add nsw i32 %67, 1
  store i32 %68, i32* %4, align 4
  br label %49

69:                                               ; preds = %49
  ret void
}

declare dso_local i32 @__isoc99_scanf(i8*, ...) #1

declare dso_local i32 @printf(i8*, ...) #1


!llvm.module.flags = !{!0}
!llvm.ident = !{!1}

!0 = !{i32 1, !"wchar_size", i32 4}
!1 = !{!"clang version 10.0.0-4ubuntu1 "}
